target datalayout = "e-m:e-p270:32:32-p271:32:32-p272:64:64-i64:64-i128:128-f80:128-n8:16:32:64-S128"
target triple = "x86_64-pc-linux-gnu"

%"class.net::TcpCubicSenderBase" = type <{ %"class.net::SendAlgorithmInterface", %"class.net::HybridSlowStart", %"class.net::PrrSender", ptr, ptr, i8, [3 x i8], i32, i64, i64, i64, i8, i8, i8, i8, i8, [3 x i8] }>
%"class.net::SendAlgorithmInterface" = type { ptr }
%"class.net::HybridSlowStart" = type { i8, i32, i64, i64, i32, %"class.net::QuicTime::Delta" }
%"class.net::QuicTime::Delta" = type { %"class.base::TimeDelta", i64 }
%"class.base::TimeDelta" = type { i64 }
%"class.net::PrrSender" = type { i64, i64, i64, i64 }

; Function Attrs: mustprogress uwtable
define void @_ZN3net18TcpCubicSenderBase23OnRetransmissionTimeoutEb(ptr noundef nonnull align 8 dereferenceable(141) %0, i1 noundef zeroext %1) unnamed_addr #0 align 2 {
  %3 = alloca ptr, align 8
  %4 = alloca i8, align 1
  store ptr %0, ptr %3, align 8, !tbaa !3
  %5 = zext i1 %1 to i8
  store i8 %5, ptr %4, align 1, !tbaa !12
  %6 = load ptr, ptr %3, align 8
  %7 = getelementptr inbounds nuw %"class.net::TcpCubicSenderBase", ptr %6, i32 0, i32 10
  store i64 0, ptr %7, align 8, !tbaa !35
  %8 = load i8, ptr %4, align 1, !tbaa !12, !range !29, !noundef !30
  %9 = trunc i8 %8 to i1
  br i1 %9, label %11, label %10

10:                                               ; preds = %2
  br label %16

11:                                               ; preds = %2
  %12 = getelementptr inbounds nuw %"class.net::TcpCubicSenderBase", ptr %6, i32 0, i32 1
  call void @_ZN3net15HybridSlowStart7RestartEv(ptr noundef nonnull align 8 dereferenceable(48) %12)
  %13 = load ptr, ptr %6, align 8, !tbaa !16
  %14 = getelementptr inbounds ptr, ptr %13, i64 26
  %15 = load ptr, ptr %14, align 8
  call void %15(ptr noundef nonnull align 8 dereferenceable(141) %6)
  br label %16

16:                                               ; preds = %11, %10
  ret void
}