; Function Attrs: mustprogress uwtable
define void @_ZN3net18TcpCubicSenderBase23OnRetransmissionTimeoutEb(ptr noundef nonnull align 8 dereferenceable(141) initializes((128, 136)) %0, i1 noundef zeroext %1) unnamed_addr #0 align 2 {
  %3 = getelementptr inbounds nuw i8, ptr %0, i64 128
  store i64 0, ptr %3, align 8, !tbaa !59
  br i1 %1, label %4, label %9

4:                                                ; preds = %2
  %5 = getelementptr inbounds nuw i8, ptr %0, i64 8
  tail call void @_ZN3net15HybridSlowStart7RestartEv(ptr noundef nonnull align 8 dereferenceable(48) %5)
  %6 = load ptr, ptr %0, align 8, !tbaa !3
  %7 = getelementptr inbounds nuw i8, ptr %6, i64 208
  %8 = load ptr, ptr %7, align 8
  tail call void %8(ptr noundef nonnull align 8 dereferenceable(141) %0)
  br label %9

9:                                                ; preds = %2, %4
  ret void
}